target datalayout = "e-m:e-p270:32:32-p271:32:32-p272:64:64-i64:64-i128:128-f80:128-n8:16:32:64-S128"
target triple = "x86_64-pc-linux-gnu"

%struct.backup_manifest_info = type { ptr, i32, ptr, i64, i8, i8, i8 }

@.str.1 = private unnamed_addr constant [18 x i8] c"backup_manifest.c\00", align 1
@.str.27 = private unnamed_addr constant [49 x i8] c"failed to update checksum of backup manifest: %s\00", align 1
@__func__.AppendStringToManifest = private unnamed_addr constant [23 x i8] c"AppendStringToManifest\00", align 1

; Function Attrs: nounwind uwtable
define internal void @AppendStringToManifest(ptr noundef %0, ptr noundef %1) #0 {
  %3 = alloca ptr, align 8
  %4 = alloca ptr, align 8
  %5 = alloca i32, align 4
  store ptr %0, ptr %3, align 8
  store ptr %1, ptr %4, align 8
  call void @llvm.lifetime.start.p0(i64 4, ptr %5) #8
  %6 = load ptr, ptr %4, align 8
  %7 = call i64 @strlen(ptr noundef %6) #9
  %8 = trunc i64 %7 to i32
  store i32 %8, ptr %5, align 4
  %9 = load ptr, ptr %3, align 8
  %10 = getelementptr inbounds nuw %struct.backup_manifest_info, ptr %9, i32 0, i32 6
  %11 = load i8, ptr %10, align 2, !range !4, !noundef !5
  %12 = trunc i8 %11 to i1
  br i1 %12, label %13, label %38

13:                                               ; preds = %2
  %14 = load ptr, ptr %3, align 8
  %15 = getelementptr inbounds nuw %struct.backup_manifest_info, ptr %14, i32 0, i32 2
  %16 = load ptr, ptr %15, align 8
  %17 = load ptr, ptr %4, align 8
  %18 = load i32, ptr %5, align 4
  %19 = sext i32 %18 to i64
  %20 = call i32 @pg_cryptohash_update(ptr noundef %16, ptr noundef %17, i64 noundef %19)
  %21 = icmp slt i32 %20, 0
  br i1 %21, label %22, label %37

22:                                               ; preds = %13
  br label %23

23:                                               ; preds = %22
  br i1 true, label %24, label %26

24:                                               ; preds = %23
  %25 = call zeroext i1 @errstart_cold(i32 noundef 21, ptr noundef null) #7
  br i1 %25, label %28, label %34

26:                                               ; preds = %23
  %27 = call zeroext i1 @errstart(i32 noundef 21, ptr noundef null)
  br i1 %27, label %28, label %34

28:                                               ; preds = %26, %24
  %29 = load ptr, ptr %3, align 8
  %30 = getelementptr inbounds nuw %struct.backup_manifest_info, ptr %29, i32 0, i32 2
  %31 = load ptr, ptr %30, align 8
  %32 = call ptr @pg_cryptohash_error(ptr noundef %31)
  %33 = call i32 (ptr, ...) @errmsg_internal(ptr noundef @.str.27, ptr noundef %32)
  call void @errfinish(ptr noundef @.str.1, i32 noundef 393, ptr noundef @__func__.AppendStringToManifest)
  br label %34

34:                                               ; preds = %28, %26, %24
  unreachable

35:                                               ; No predecessors!
  br label %36

36:                                               ; preds = %35
  br label %37

37:                                               ; preds = %36, %13
  br label %38

38:                                               ; preds = %37, %2
  %39 = load ptr, ptr %3, align 8
  %40 = getelementptr inbounds nuw %struct.backup_manifest_info, ptr %39, i32 0, i32 0
  %41 = load ptr, ptr %40, align 8
  %42 = load ptr, ptr %4, align 8
  %43 = load i32, ptr %5, align 4
  %44 = sext i32 %43 to i64
  call void @BufFileWrite(ptr noundef %41, ptr noundef %42, i64 noundef %44)
  %45 = load i32, ptr %5, align 4
  %46 = sext i32 %45 to i64
  %47 = load ptr, ptr %3, align 8
  %48 = getelementptr inbounds nuw %struct.backup_manifest_info, ptr %47, i32 0, i32 3
  %49 = load i64, ptr %48, align 8
  %50 = add i64 %49, %46
  store i64 %50, ptr %48, align 8
  call void @llvm.lifetime.end.p0(i64 4, ptr %5) #8
  ret void
}