; Function Attrs: nounwind uwtable
define internal fastcc void @AppendStringToManifest(ptr noundef captures(none) %0, ptr noundef %1) unnamed_addr #0 {
  %3 = tail call i64 @strlen(ptr noundef nonnull dereferenceable(1) %1) #10
  %4 = getelementptr inbounds nuw i8, ptr %0, i64 34
  %5 = load i8, ptr %4, align 2, !range !4, !noundef !5
  %6 = trunc nuw i8 %5 to i1
  br i1 %6, label %7, label %._crit_edge

._crit_edge:                                      ; preds = %2
  %.pre = shl i64 %3, 32
  %.pre11 = ashr exact i64 %.pre, 32
  br label %18

7:                                                ; preds = %2
  %8 = getelementptr inbounds nuw i8, ptr %0, i64 16
  %9 = load ptr, ptr %8, align 8
  %sext = shl i64 %3, 32
  %10 = ashr exact i64 %sext, 32
  %11 = tail call i32 @pg_cryptohash_update(ptr noundef %9, ptr noundef nonnull %1, i64 noundef %10) #8
  %12 = icmp slt i32 %11, 0
  br i1 %12, label %13, label %18

13:                                               ; preds = %7
  %14 = tail call zeroext i1 @errstart_cold(i32 noundef 21, ptr noundef null) #9
  tail call void @llvm.assume(i1 %14)
  %15 = load ptr, ptr %8, align 8
  %16 = tail call ptr @pg_cryptohash_error(ptr noundef %15) #8
  %17 = tail call i32 (ptr, ...) @errmsg_internal(ptr noundef nonnull @.str.27, ptr noundef %16) #8
  tail call void @errfinish(ptr noundef nonnull @.str.1, i32 noundef 393, ptr noundef nonnull @__func__.AppendStringToManifest) #8
  unreachable

18:                                               ; preds = %._crit_edge, %7
  %.pre-phi = phi i64 [ %.pre11, %._crit_edge ], [ %10, %7 ]
  %19 = load ptr, ptr %0, align 8
  tail call void @BufFileWrite(ptr noundef %19, ptr noundef nonnull %1, i64 noundef %.pre-phi) #8
  %20 = getelementptr inbounds nuw i8, ptr %0, i64 24
  %21 = load i64, ptr %20, align 8
  %22 = add i64 %21, %.pre-phi
  store i64 %22, ptr %20, align 8
  ret void
}